target datalayout = "e-m:e-p270:32:32-p271:32:32-p272:64:64-i64:64-i128:128-f80:128-n8:16:32:64-S128"
target triple = "x86_64-pc-linux-gnu"

; Function Attrs: mustprogress nounwind uwtable
define hidden noundef ptr @_ZN11StringUtils13strstr_nocaseEPKcS1_(ptr noundef %0, ptr noundef %1) #1 align 2 {
  %3 = alloca ptr, align 8
  %4 = alloca ptr, align 8
  %5 = alloca ptr, align 8
  %6 = alloca i64, align 8
  %7 = alloca i8, align 1
  %8 = alloca i64, align 8
  store ptr %0, ptr %4, align 8
  store ptr %1, ptr %5, align 8
  %9 = load ptr, ptr %5, align 8
  %10 = getelementptr inbounds i8, ptr %9, i64 0
  %11 = load i8, ptr %10, align 1
  %12 = sext i8 %11 to i32
  %13 = icmp eq i32 %12, 0
  br i1 %13, label %14, label %16

14:                                               ; preds = %2
  %15 = load ptr, ptr %4, align 8
  store ptr %15, ptr %3, align 8
  br label %75

16:                                               ; preds = %2
  store i64 0, ptr %6, align 8
  br label %17

17:                                               ; preds = %71, %16
  %18 = load ptr, ptr %4, align 8
  %19 = load i64, ptr %6, align 8
  %20 = getelementptr inbounds i8, ptr %18, i64 %19
  %21 = load i8, ptr %20, align 1
  %22 = sext i8 %21 to i32
  %23 = icmp ne i32 %22, 0
  br i1 %23, label %24, label %74

24:                                               ; preds = %17
  store i8 1, ptr %7, align 1
  store i64 0, ptr %8, align 8
  br label %25

25:                                               ; preds = %60, %24
  %26 = load ptr, ptr %5, align 8
  %27 = load i64, ptr %8, align 8
  %28 = getelementptr inbounds i8, ptr %26, i64 %27
  %29 = load i8, ptr %28, align 1
  %30 = sext i8 %29 to i32
  %31 = icmp ne i32 %30, 0
  br i1 %31, label %32, label %63

32:                                               ; preds = %25
  %33 = load ptr, ptr %4, align 8
  %34 = load i64, ptr %6, align 8
  %35 = load i64, ptr %8, align 8
  %36 = add i64 %34, %35
  %37 = getelementptr inbounds i8, ptr %33, i64 %36
  %38 = load i8, ptr %37, align 1
  %39 = sext i8 %38 to i32
  %40 = icmp eq i32 %39, 0
  br i1 %40, label %41, label %42

41:                                               ; preds = %32
  store ptr null, ptr %3, align 8
  br label %75

42:                                               ; preds = %32
  %43 = load ptr, ptr %4, align 8
  %44 = load i64, ptr %6, align 8
  %45 = load i64, ptr %8, align 8
  %46 = add i64 %44, %45
  %47 = getelementptr inbounds i8, ptr %43, i64 %46
  %48 = load i8, ptr %47, align 1
  %49 = sext i8 %48 to i32
  %50 = call i32 @tolower(i32 noundef %49) #6
  %51 = load ptr, ptr %5, align 8
  %52 = load i64, ptr %8, align 8
  %53 = getelementptr inbounds i8, ptr %51, i64 %52
  %54 = load i8, ptr %53, align 1
  %55 = sext i8 %54 to i32
  %56 = call i32 @tolower(i32 noundef %55) #6
  %57 = icmp ne i32 %50, %56
  br i1 %57, label %58, label %59

58:                                               ; preds = %42
  store i8 0, ptr %7, align 1
  br label %63

59:                                               ; preds = %42
  br label %60

60:                                               ; preds = %59
  %61 = load i64, ptr %8, align 8
  %62 = add i64 %61, 1
  store i64 %62, ptr %8, align 8
  br label %25, !llvm.loop !10

63:                                               ; preds = %58, %25
  %64 = load i8, ptr %7, align 1
  %65 = trunc i8 %64 to i1
  br i1 %65, label %66, label %70

66:                                               ; preds = %63
  %67 = load ptr, ptr %4, align 8
  %68 = load i64, ptr %6, align 8
  %69 = getelementptr inbounds i8, ptr %67, i64 %68
  store ptr %69, ptr %3, align 8
  br label %75

70:                                               ; preds = %63
  br label %71

71:                                               ; preds = %70
  %72 = load i64, ptr %6, align 8
  %73 = add i64 %72, 1
  store i64 %73, ptr %6, align 8
  br label %17, !llvm.loop !11

74:                                               ; preds = %17
  store ptr null, ptr %3, align 8
  br label %75

75:                                               ; preds = %74, %66, %41, %14
  %76 = load ptr, ptr %3, align 8
  ret ptr %76
}