; Function Attrs: mustprogress nofree nounwind willreturn memory(read) uwtable
define hidden noundef ptr @_ZN11StringUtils13strstr_nocaseEPKcS1_(ptr noundef readonly %0, ptr nocapture noundef readonly %1) local_unnamed_addr #4 align 2 {
  %3 = load i8, ptr %1, align 1
  %4 = icmp eq i8 %3, 0
  br i1 %4, label %.critedge, label %.preheader26

.preheader26:                                     ; preds = %2
  %5 = load i8, ptr %0, align 1
  %.not33 = icmp eq i8 %5, 0
  br i1 %.not33, label %.critedge, label %.preheader

.preheader:                                       ; preds = %.preheader26, %20
  %.02034 = phi i64 [ %21, %20 ], [ 0, %.preheader26 ]
  %6 = getelementptr inbounds i8, ptr %0, i64 %.02034
  br label %11

7:                                                ; preds = %15
  %8 = add i64 %.029, 1
  %9 = getelementptr inbounds i8, ptr %1, i64 %8
  %10 = load i8, ptr %9, align 1
  %.not24 = icmp eq i8 %10, 0
  br i1 %.not24, label %.critedge, label %11, !llvm.loop !10

11:                                               ; preds = %.preheader, %7
  %.in = phi i8 [ %3, %.preheader ], [ %10, %7 ]
  %.029 = phi i64 [ 0, %.preheader ], [ %8, %7 ]
  %12 = getelementptr i8, ptr %6, i64 %.029
  %13 = load i8, ptr %12, align 1
  %14 = icmp eq i8 %13, 0
  br i1 %14, label %.critedge, label %15

15:                                               ; preds = %11
  %16 = sext i8 %.in to i32
  %17 = sext i8 %13 to i32
  %18 = tail call i32 @tolower(i32 noundef %17) #10
  %19 = tail call i32 @tolower(i32 noundef %16) #10
  %.not25 = icmp eq i32 %18, %19
  br i1 %.not25, label %7, label %20

20:                                               ; preds = %15
  %21 = add i64 %.02034, 1
  %22 = getelementptr inbounds i8, ptr %0, i64 %21
  %23 = load i8, ptr %22, align 1
  %.not = icmp eq i8 %23, 0
  br i1 %.not, label %.critedge, label %.preheader, !llvm.loop !11

.critedge:                                        ; preds = %20, %11, %7, %.preheader26, %2
  %.021 = phi ptr [ %0, %2 ], [ null, %.preheader26 ], [ null, %11 ], [ %6, %7 ], [ null, %20 ]
  ret ptr %.021
}